target datalayout = "e-m:e-p270:32:32-p271:32:32-p272:64:64-i64:64-i128:128-f80:128-n8:16:32:64-S128"
target triple = "x86_64-pc-linux-gnu"

%struct.AVFilterContext = type { ptr, ptr, ptr, ptr, ptr, i32, ptr, ptr, i32, ptr, ptr, i32, i32, ptr, ptr, ptr, ptr, i32, ptr, i32, i32 }
%struct.VAAPIVPPContext = type { ptr, ptr, ptr, i32, i32, i32, ptr, ptr, %struct._VARectangle, i32, i32, i32, [10 x i32], i32, i32, ptr, ptr }
%struct._VARectangle = type { i16, i16, i16, i16 }
%struct.TransposeVAAPIContext = type { %struct.VAAPIVPPContext, i32, i32, i32, i32 }
%struct._VAProcPipelineCaps = type { i32, i32, i32, i32, ptr, i32, ptr, i32, i32, i32, i32, i32, i32, ptr, i32, ptr, i32, i32, i32, i32, i32, i32, i32, i32, [14 x i32] }
%struct.AVVAAPIDeviceContext = type { ptr, i32 }

@.str.33 = private unnamed_addr constant [41 x i8] c"Failed to query pipeline caps: %d (%s).\0A\00", align 1
@.str.34 = private unnamed_addr constant [40 x i8] c"VAAPI driver doesn't support transpose\0A\00", align 1
@.str.35 = private unnamed_addr constant [31 x i8] c"Failed to set direction to %d\0A\00", align 1
@.str.36 = private unnamed_addr constant [42 x i8] c"VAAPI driver doesn't support rotation %d\0A\00", align 1
@.str.37 = private unnamed_addr constant [40 x i8] c"VAAPI driver doesn't support mirror %d\0A\00", align 1

; Function Attrs: nounwind uwtable
define internal i32 @transpose_vaapi_build_filter_params(ptr noundef %0) #2 {
  %2 = alloca i32, align 4
  %3 = alloca ptr, align 8
  %4 = alloca ptr, align 8
  %5 = alloca ptr, align 8
  %6 = alloca i32, align 4
  %7 = alloca i32, align 4
  %8 = alloca %struct._VAProcPipelineCaps, align 8
  %9 = alloca i32, align 4
  store ptr %0, ptr %3, align 8, !tbaa !4
  call void @llvm.lifetime.start.p0(i64 8, ptr %4) #6
  %10 = load ptr, ptr %3, align 8, !tbaa !4
  %11 = getelementptr inbounds nuw %struct.AVFilterContext, ptr %10, i32 0, i32 9
  %12 = load ptr, ptr %11, align 8, !tbaa !9
  store ptr %12, ptr %4, align 8, !tbaa !22
  call void @llvm.lifetime.start.p0(i64 8, ptr %5) #6
  %13 = load ptr, ptr %3, align 8, !tbaa !4
  %14 = getelementptr inbounds nuw %struct.AVFilterContext, ptr %13, i32 0, i32 9
  %15 = load ptr, ptr %14, align 8, !tbaa !9
  store ptr %15, ptr %5, align 8, !tbaa !43
  call void @llvm.lifetime.start.p0(i64 4, ptr %6) #6
  call void @llvm.lifetime.start.p0(i64 4, ptr %7) #6
  call void @llvm.lifetime.start.p0(i64 176, ptr %8) #6
  call void @llvm.memset.p0.i64(ptr align 8 %8, i8 0, i64 176, i1 false)
  %16 = load ptr, ptr %4, align 8, !tbaa !22
  %17 = getelementptr inbounds nuw %struct.VAAPIVPPContext, ptr %16, i32 0, i32 1
  %18 = load ptr, ptr %17, align 8, !tbaa !81
  %19 = getelementptr inbounds nuw %struct.AVVAAPIDeviceContext, ptr %18, i32 0, i32 0
  %20 = load ptr, ptr %19, align 8, !tbaa !82
  %21 = load ptr, ptr %4, align 8, !tbaa !22
  %22 = getelementptr inbounds nuw %struct.VAAPIVPPContext, ptr %21, i32 0, i32 5
  %23 = load i32, ptr %22, align 8, !tbaa !59
  %24 = call i32 @vaQueryVideoProcPipelineCaps(ptr noundef %20, i32 noundef %23, ptr noundef null, i32 noundef 0, ptr noundef %8)
  store i32 %24, ptr %6, align 4, !tbaa !34
  %25 = load i32, ptr %6, align 4, !tbaa !34
  %26 = icmp ne i32 %25, 0
  br i1 %26, label %27, label %32

27:                                               ; preds = %1
  %28 = load ptr, ptr %3, align 8, !tbaa !4
  %29 = load i32, ptr %6, align 4, !tbaa !34
  %30 = load i32, ptr %6, align 4, !tbaa !34
  %31 = call ptr @vaErrorStr(i32 noundef %30)
  call void (ptr, i32, ptr, ...) @av_log(ptr noundef %28, i32 noundef 16, ptr noundef @.str.33, i32 noundef %29, ptr noundef %31)
  store i32 -5, ptr %2, align 4
  store i32 1, ptr %9, align 4
  br label %124

32:                                               ; preds = %1
  %33 = getelementptr inbounds nuw %struct._VAProcPipelineCaps, ptr %8, i32 0, i32 8
  %34 = load i32, ptr %33, align 4, !tbaa !84
  %35 = icmp ne i32 %34, 0
  br i1 %35, label %38, label %36

36:                                               ; preds = %32
  %37 = load ptr, ptr %3, align 8, !tbaa !4
  call void (ptr, i32, ptr, ...) @av_log(ptr noundef %37, i32 noundef 16, ptr noundef @.str.34)
  store i32 -22, ptr %2, align 4
  store i32 1, ptr %9, align 4
  br label %124

38:                                               ; preds = %32
  %39 = load ptr, ptr %5, align 8, !tbaa !43
  %40 = getelementptr inbounds nuw %struct.TransposeVAAPIContext, ptr %39, i32 0, i32 2
  %41 = load i32, ptr %40, align 4, !tbaa !80
  switch i32 %41, label %77 [
    i32 0, label %42
    i32 1, label %47
    i32 2, label %52
    i32 3, label %57
    i32 4, label %62
    i32 5, label %67
    i32 6, label %72
  ]

42:                                               ; preds = %38
  %43 = load ptr, ptr %5, align 8, !tbaa !43
  %44 = getelementptr inbounds nuw %struct.TransposeVAAPIContext, ptr %43, i32 0, i32 3
  store i32 3, ptr %44, align 8, !tbaa !62
  %45 = load ptr, ptr %5, align 8, !tbaa !43
  %46 = getelementptr inbounds nuw %struct.TransposeVAAPIContext, ptr %45, i32 0, i32 4
  store i32 2, ptr %46, align 4, !tbaa !70
  br label %82

47:                                               ; preds = %38
  %48 = load ptr, ptr %5, align 8, !tbaa !43
  %49 = getelementptr inbounds nuw %struct.TransposeVAAPIContext, ptr %48, i32 0, i32 3
  store i32 1, ptr %49, align 8, !tbaa !62
  %50 = load ptr, ptr %5, align 8, !tbaa !43
  %51 = getelementptr inbounds nuw %struct.TransposeVAAPIContext, ptr %50, i32 0, i32 4
  store i32 0, ptr %51, align 4, !tbaa !70
  br label %82

52:                                               ; preds = %38
  %53 = load ptr, ptr %5, align 8, !tbaa !43
  %54 = getelementptr inbounds nuw %struct.TransposeVAAPIContext, ptr %53, i32 0, i32 3
  store i32 3, ptr %54, align 8, !tbaa !62
  %55 = load ptr, ptr %5, align 8, !tbaa !43
  %56 = getelementptr inbounds nuw %struct.TransposeVAAPIContext, ptr %55, i32 0, i32 4
  store i32 0, ptr %56, align 4, !tbaa !70
  br label %82

57:                                               ; preds = %38
  %58 = load ptr, ptr %5, align 8, !tbaa !43
  %59 = getelementptr inbounds nuw %struct.TransposeVAAPIContext, ptr %58, i32 0, i32 3
  store i32 1, ptr %59, align 8, !tbaa !62
  %60 = load ptr, ptr %5, align 8, !tbaa !43
  %61 = getelementptr inbounds nuw %struct.TransposeVAAPIContext, ptr %60, i32 0, i32 4
  store i32 2, ptr %61, align 4, !tbaa !70
  br label %82

62:                                               ; preds = %38
  %63 = load ptr, ptr %5, align 8, !tbaa !43
  %64 = getelementptr inbounds nuw %struct.TransposeVAAPIContext, ptr %63, i32 0, i32 3
  store i32 2, ptr %64, align 8, !tbaa !62
  %65 = load ptr, ptr %5, align 8, !tbaa !43
  %66 = getelementptr inbounds nuw %struct.TransposeVAAPIContext, ptr %65, i32 0, i32 4
  store i32 0, ptr %66, align 4, !tbaa !70
  br label %82

67:                                               ; preds = %38
  %68 = load ptr, ptr %5, align 8, !tbaa !43
  %69 = getelementptr inbounds nuw %struct.TransposeVAAPIContext, ptr %68, i32 0, i32 3
  store i32 0, ptr %69, align 8, !tbaa !62
  %70 = load ptr, ptr %5, align 8, !tbaa !43
  %71 = getelementptr inbounds nuw %struct.TransposeVAAPIContext, ptr %70, i32 0, i32 4
  store i32 1, ptr %71, align 4, !tbaa !70
  br label %82

72:                                               ; preds = %38
  %73 = load ptr, ptr %5, align 8, !tbaa !43
  %74 = getelementptr inbounds nuw %struct.TransposeVAAPIContext, ptr %73, i32 0, i32 3
  store i32 0, ptr %74, align 8, !tbaa !62
  %75 = load ptr, ptr %5, align 8, !tbaa !43
  %76 = getelementptr inbounds nuw %struct.TransposeVAAPIContext, ptr %75, i32 0, i32 4
  store i32 2, ptr %76, align 4, !tbaa !70
  br label %82

77:                                               ; preds = %38
  %78 = load ptr, ptr %3, align 8, !tbaa !4
  %79 = load ptr, ptr %5, align 8, !tbaa !43
  %80 = getelementptr inbounds nuw %struct.TransposeVAAPIContext, ptr %79, i32 0, i32 2
  %81 = load i32, ptr %80, align 4, !tbaa !80
  call void (ptr, i32, ptr, ...) @av_log(ptr noundef %78, i32 noundef 16, ptr noundef @.str.35, i32 noundef %81)
  store i32 -22, ptr %2, align 4
  store i32 1, ptr %9, align 4
  br label %124

82:                                               ; preds = %72, %67, %62, %57, %52, %47, %42
  %83 = load ptr, ptr %5, align 8, !tbaa !43
  %84 = getelementptr inbounds nuw %struct.TransposeVAAPIContext, ptr %83, i32 0, i32 3
  %85 = load i32, ptr %84, align 8, !tbaa !62
  %86 = icmp ne i32 0, %85
  br i1 %86, label %87, label %103

87:                                               ; preds = %82
  %88 = getelementptr inbounds nuw %struct._VAProcPipelineCaps, ptr %8, i32 0, i32 8
  %89 = load i32, ptr %88, align 4, !tbaa !84
  %90 = load ptr, ptr %5, align 8, !tbaa !43
  %91 = getelementptr inbounds nuw %struct.TransposeVAAPIContext, ptr %90, i32 0, i32 3
  %92 = load i32, ptr %91, align 8, !tbaa !62
  %93 = shl i32 1, %92
  %94 = and i32 %89, %93
  store i32 %94, ptr %7, align 4, !tbaa !34
  %95 = load i32, ptr %7, align 4, !tbaa !34
  %96 = icmp ne i32 %95, 0
  br i1 %96, label %102, label %97

97:                                               ; preds = %87
  %98 = load ptr, ptr %3, align 8, !tbaa !4
  %99 = load ptr, ptr %5, align 8, !tbaa !43
  %100 = getelementptr inbounds nuw %struct.TransposeVAAPIContext, ptr %99, i32 0, i32 3
  %101 = load i32, ptr %100, align 8, !tbaa !62
  call void (ptr, i32, ptr, ...) @av_log(ptr noundef %98, i32 noundef 16, ptr noundef @.str.36, i32 noundef %101)
  store i32 -22, ptr %2, align 4
  store i32 1, ptr %9, align 4
  br label %124

102:                                              ; preds = %87
  br label %103

103:                                              ; preds = %102, %82
  %104 = load ptr, ptr %5, align 8, !tbaa !43
  %105 = getelementptr inbounds nuw %struct.TransposeVAAPIContext, ptr %104, i32 0, i32 4
  %106 = load i32, ptr %105, align 4, !tbaa !70
  %107 = icmp ne i32 0, %106
  br i1 %107, label %108, label %123

108:                                              ; preds = %103
  %109 = getelementptr inbounds nuw %struct._VAProcPipelineCaps, ptr %8, i32 0, i32 10
  %110 = load i32, ptr %109, align 4, !tbaa !86
  %111 = load ptr, ptr %5, align 8, !tbaa !43
  %112 = getelementptr inbounds nuw %struct.TransposeVAAPIContext, ptr %111, i32 0, i32 4
  %113 = load i32, ptr %112, align 4, !tbaa !70
  %114 = and i32 %110, %113
  store i32 %114, ptr %7, align 4, !tbaa !34
  %115 = load i32, ptr %7, align 4, !tbaa !34
  %116 = icmp ne i32 %115, 0
  br i1 %116, label %122, label %117

117:                                              ; preds = %108
  %118 = load ptr, ptr %3, align 8, !tbaa !4
  %119 = load ptr, ptr %5, align 8, !tbaa !43
  %120 = getelementptr inbounds nuw %struct.TransposeVAAPIContext, ptr %119, i32 0, i32 4
  %121 = load i32, ptr %120, align 4, !tbaa !70
  call void (ptr, i32, ptr, ...) @av_log(ptr noundef %118, i32 noundef 16, ptr noundef @.str.37, i32 noundef %121)
  store i32 -22, ptr %2, align 4
  store i32 1, ptr %9, align 4
  br label %124

122:                                              ; preds = %108
  br label %123

123:                                              ; preds = %122, %103
  store i32 0, ptr %2, align 4
  store i32 1, ptr %9, align 4
  br label %124

124:                                              ; preds = %123, %117, %97, %77, %36, %27
  call void @llvm.lifetime.end.p0(i64 176, ptr %8) #6
  call void @llvm.lifetime.end.p0(i64 4, ptr %7) #6
  call void @llvm.lifetime.end.p0(i64 4, ptr %6) #6
  call void @llvm.lifetime.end.p0(i64 8, ptr %5) #6
  call void @llvm.lifetime.end.p0(i64 8, ptr %4) #6
  %125 = load i32, ptr %2, align 4
  ret i32 %125
}